target datalayout = "e-m:e-p270:32:32-p271:32:32-p272:64:64-i64:64-i128:128-f80:128-n8:16:32:64-S128"
target triple = "x86_64-unknown-linux-gnu"

%"class.icu_75::ScriptRunIterator" = type <{ ptr, i32, i32, i32, i32, i32, [4 x i8] }>

; Function Attrs: mustprogress nounwind uwtable
define void @_ZN6icu_7517ScriptRunIterator11adjustLimitEi(ptr noundef nonnull align 8 dereferenceable(28) %this, i32 noundef %delta) #0 align 2 {
entry:
  %this.addr = alloca ptr, align 8
  %delta.addr = alloca i32, align 4
  store ptr %this, ptr %this.addr, align 8
  store i32 %delta, ptr %delta.addr, align 4
  %this1 = load ptr, ptr %this.addr, align 8
  %0 = load i32, ptr %delta.addr, align 4
  %limit = getelementptr inbounds %"class.icu_75::ScriptRunIterator", ptr %this1, i32 0, i32 5
  %1 = load i32, ptr %limit, align 8
  %add = add nsw i32 %1, %0
  store i32 %add, ptr %limit, align 8
  %2 = load i32, ptr %delta.addr, align 4
  %textLimit = getelementptr inbounds %"class.icu_75::ScriptRunIterator", ptr %this1, i32 0, i32 2
  %3 = load i32, ptr %textLimit, align 4
  %add2 = add nsw i32 %3, %2
  store i32 %add2, ptr %textLimit, align 4
  ret void
}