; Function Attrs: mustprogress nofree norecurse nosync nounwind willreturn memory(argmem: readwrite) uwtable
define void @_ZN6icu_7517ScriptRunIterator11adjustLimitEi(ptr nocapture noundef nonnull align 8 dereferenceable(28) %this, i32 noundef %delta) local_unnamed_addr #3 align 2 {
entry:
  %limit = getelementptr inbounds i8, ptr %this, i64 24
  %0 = load i32, ptr %limit, align 8
  %add = add nsw i32 %0, %delta
  store i32 %add, ptr %limit, align 8
  %textLimit = getelementptr inbounds i8, ptr %this, i64 12
  %1 = load i32, ptr %textLimit, align 4
  %add2 = add nsw i32 %1, %delta
  store i32 %add2, ptr %textLimit, align 4
  ret void
}